target datalayout = "e-m:e-p270:32:32-p271:32:32-p272:64:64-i64:64-i128:128-f80:128-n8:16:32:64-S128"
target triple = "x86_64-pc-linux-gnu"

%struct.RTMPContext = type { ptr, ptr, [2 x ptr], [2 x i32], i32, i32, i32, ptr, i32, ptr, ptr, i32, i32, ptr, i32, i32, i32, %struct.RTMPPacket, i32, i64, i64, i32, i32, i32, i32, i32, [11 x i8], i32, i32, ptr, ptr, ptr, i32, i32, ptr, ptr, [42 x i8], ptr, ptr, i32, i32, i32, i32, ptr, i32, i32, i32, i32, i32, double, i32, ptr, [50 x i8], [50 x i8], [500 x i8], i32, i32 }
%struct.RTMPPacket = type { i32, i32, i32, i32, i32, ptr, i32, i32, i32 }
%struct.GetByteContext = type { ptr, ptr, ptr }
%struct.TrackedMethod = type { ptr, i32 }

@.str.84 = private unnamed_addr constant [30 x i8] c"Assertion %s failed at %s:%d\0A\00", align 1
@.str.85 = private unnamed_addr constant [14 x i8] c"buf_size >= 0\00", align 1
@.str.86 = private unnamed_addr constant [26 x i8] c"./libavcodec/bytestream.h\00", align 1

; Function Attrs: nounwind uwtable
define internal i32 @add_tracked_method(ptr noundef %0, ptr noundef %1, i32 noundef %2) #0 {
  %4 = alloca i32, align 4
  %5 = alloca ptr, align 8
  %6 = alloca ptr, align 8
  %7 = alloca i32, align 4
  %8 = alloca i32, align 4
  %9 = alloca i32, align 4
  store ptr %0, ptr %5, align 8, !tbaa !22
  store ptr %1, ptr %6, align 8, !tbaa !9
  store i32 %2, ptr %7, align 4, !tbaa !11
  call void @llvm.lifetime.start.p0(i64 4, ptr %8) #12
  %10 = load ptr, ptr %5, align 8, !tbaa !22
  %11 = getelementptr inbounds nuw %struct.RTMPContext, ptr %10, i32 0, i32 44
  %12 = load i32, ptr %11, align 8, !tbaa !103
  %13 = add nsw i32 %12, 1
  %14 = load ptr, ptr %5, align 8, !tbaa !22
  %15 = getelementptr inbounds nuw %struct.RTMPContext, ptr %14, i32 0, i32 45
  %16 = load i32, ptr %15, align 4, !tbaa !106
  %17 = icmp sgt i32 %13, %16
  br i1 %17, label %18, label %41

18:                                               ; preds = %3
  %19 = load ptr, ptr %5, align 8, !tbaa !22
  %20 = getelementptr inbounds nuw %struct.RTMPContext, ptr %19, i32 0, i32 44
  %21 = load i32, ptr %20, align 8, !tbaa !103
  %22 = add nsw i32 %21, 1
  %23 = mul nsw i32 %22, 2
  %24 = load ptr, ptr %5, align 8, !tbaa !22
  %25 = getelementptr inbounds nuw %struct.RTMPContext, ptr %24, i32 0, i32 45
  store i32 %23, ptr %25, align 4, !tbaa !106
  %26 = load ptr, ptr %5, align 8, !tbaa !22
  %27 = getelementptr inbounds nuw %struct.RTMPContext, ptr %26, i32 0, i32 43
  %28 = load ptr, ptr %5, align 8, !tbaa !22
  %29 = getelementptr inbounds nuw %struct.RTMPContext, ptr %28, i32 0, i32 45
  %30 = load i32, ptr %29, align 4, !tbaa !106
  %31 = sext i32 %30 to i64
  %32 = call i32 @av_reallocp_array(ptr noundef %27, i64 noundef %31, i64 noundef 16)
  store i32 %32, ptr %8, align 4, !tbaa !11
  %33 = icmp slt i32 %32, 0
  br i1 %33, label %34, label %40

34:                                               ; preds = %18
  %35 = load ptr, ptr %5, align 8, !tbaa !22
  %36 = getelementptr inbounds nuw %struct.RTMPContext, ptr %35, i32 0, i32 44
  store i32 0, ptr %36, align 8, !tbaa !103
  %37 = load ptr, ptr %5, align 8, !tbaa !22
  %38 = getelementptr inbounds nuw %struct.RTMPContext, ptr %37, i32 0, i32 45
  store i32 0, ptr %38, align 4, !tbaa !106
  %39 = load i32, ptr %8, align 4, !tbaa !11
  store i32 %39, ptr %4, align 4
  store i32 1, ptr %9, align 4
  br label %80

40:                                               ; preds = %18
  br label %41

41:                                               ; preds = %40, %3
  %42 = load ptr, ptr %6, align 8, !tbaa !9
  %43 = call noalias ptr @av_strdup(ptr noundef %42)
  %44 = load ptr, ptr %5, align 8, !tbaa !22
  %45 = getelementptr inbounds nuw %struct.RTMPContext, ptr %44, i32 0, i32 43
  %46 = load ptr, ptr %45, align 8, !tbaa !104
  %47 = load ptr, ptr %5, align 8, !tbaa !22
  %48 = getelementptr inbounds nuw %struct.RTMPContext, ptr %47, i32 0, i32 44
  %49 = load i32, ptr %48, align 8, !tbaa !103
  %50 = sext i32 %49 to i64
  %51 = getelementptr inbounds %struct.TrackedMethod, ptr %46, i64 %50
  %52 = getelementptr inbounds nuw %struct.TrackedMethod, ptr %51, i32 0, i32 0
  store ptr %43, ptr %52, align 8, !tbaa !130
  %53 = load ptr, ptr %5, align 8, !tbaa !22
  %54 = getelementptr inbounds nuw %struct.RTMPContext, ptr %53, i32 0, i32 43
  %55 = load ptr, ptr %54, align 8, !tbaa !104
  %56 = load ptr, ptr %5, align 8, !tbaa !22
  %57 = getelementptr inbounds nuw %struct.RTMPContext, ptr %56, i32 0, i32 44
  %58 = load i32, ptr %57, align 8, !tbaa !103
  %59 = sext i32 %58 to i64
  %60 = getelementptr inbounds %struct.TrackedMethod, ptr %55, i64 %59
  %61 = getelementptr inbounds nuw %struct.TrackedMethod, ptr %60, i32 0, i32 0
  %62 = load ptr, ptr %61, align 8, !tbaa !130
  %63 = icmp ne ptr %62, null
  br i1 %63, label %65, label %64

64:                                               ; preds = %41
  store i32 -12, ptr %4, align 4
  store i32 1, ptr %9, align 4
  br label %80

65:                                               ; preds = %41
  %66 = load i32, ptr %7, align 4, !tbaa !11
  %67 = load ptr, ptr %5, align 8, !tbaa !22
  %68 = getelementptr inbounds nuw %struct.RTMPContext, ptr %67, i32 0, i32 43
  %69 = load ptr, ptr %68, align 8, !tbaa !104
  %70 = load ptr, ptr %5, align 8, !tbaa !22
  %71 = getelementptr inbounds nuw %struct.RTMPContext, ptr %70, i32 0, i32 44
  %72 = load i32, ptr %71, align 8, !tbaa !103
  %73 = sext i32 %72 to i64
  %74 = getelementptr inbounds %struct.TrackedMethod, ptr %69, i64 %73
  %75 = getelementptr inbounds nuw %struct.TrackedMethod, ptr %74, i32 0, i32 1
  store i32 %66, ptr %75, align 8, !tbaa !132
  %76 = load ptr, ptr %5, align 8, !tbaa !22
  %77 = getelementptr inbounds nuw %struct.RTMPContext, ptr %76, i32 0, i32 44
  %78 = load i32, ptr %77, align 8, !tbaa !103
  %79 = add nsw i32 %78, 1
  store i32 %79, ptr %77, align 8, !tbaa !103
  store i32 0, ptr %4, align 4
  store i32 1, ptr %9, align 4
  br label %80

80:                                               ; preds = %65, %64, %34
  call void @llvm.lifetime.end.p0(i64 4, ptr %8) #12
  %81 = load i32, ptr %4, align 4
  ret i32 %81
}

; Function Attrs: alwaysinline nounwind uwtable
define internal void @bytestream2_init(ptr noundef %0, ptr noundef %1, i32 noundef %2) #8 {
  %4 = alloca ptr, align 8
  %5 = alloca ptr, align 8
  %6 = alloca i32, align 4
  store ptr %0, ptr %4, align 8, !tbaa !126
  store ptr %1, ptr %5, align 8, !tbaa !9
  store i32 %2, ptr %6, align 4, !tbaa !11
  br label %7

7:                                                ; preds = %3
  %8 = load i32, ptr %6, align 4, !tbaa !11
  %9 = icmp sge i32 %8, 0
  br i1 %9, label %11, label %10

10:                                               ; preds = %7
  call void (ptr, i32, ptr, ...) @av_log(ptr noundef null, i32 noundef 0, ptr noundef @.str.84, ptr noundef @.str.85, ptr noundef @.str.86, i32 noundef 141)
  call void @abort() #15
  unreachable

11:                                               ; preds = %7
  br label %12

12:                                               ; preds = %11
  %13 = load ptr, ptr %5, align 8, !tbaa !9
  %14 = load ptr, ptr %4, align 8, !tbaa !126
  %15 = getelementptr inbounds nuw %struct.GetByteContext, ptr %14, i32 0, i32 0
  store ptr %13, ptr %15, align 8, !tbaa !99
  %16 = load ptr, ptr %5, align 8, !tbaa !9
  %17 = load ptr, ptr %4, align 8, !tbaa !126
  %18 = getelementptr inbounds nuw %struct.GetByteContext, ptr %17, i32 0, i32 2
  store ptr %16, ptr %18, align 8, !tbaa !128
  %19 = load ptr, ptr %5, align 8, !tbaa !9
  %20 = load i32, ptr %6, align 4, !tbaa !11
  %21 = sext i32 %20 to i64
  %22 = getelementptr inbounds i8, ptr %19, i64 %21
  %23 = load ptr, ptr %4, align 8, !tbaa !126
  %24 = getelementptr inbounds nuw %struct.GetByteContext, ptr %23, i32 0, i32 1
  store ptr %22, ptr %24, align 8, !tbaa !129
  ret void
}

; Function Attrs: nounwind uwtable
define internal i32 @rtmp_send_packet(ptr noundef %0, ptr noundef %1, i32 noundef %2) #0 {
  %4 = alloca i32, align 4
  %5 = alloca ptr, align 8
  %6 = alloca ptr, align 8
  %7 = alloca i32, align 4
  %8 = alloca i32, align 4
  %9 = alloca %struct.GetByteContext, align 8
  %10 = alloca [128 x i8], align 16
  %11 = alloca double, align 8
  %12 = alloca i32, align 4
  %13 = alloca i32, align 4
  store ptr %0, ptr %5, align 8, !tbaa !22
  store ptr %1, ptr %6, align 8, !tbaa !57
  store i32 %2, ptr %7, align 4, !tbaa !11
  call void @llvm.lifetime.start.p0(i64 4, ptr %8) #12
  %14 = load ptr, ptr %6, align 8, !tbaa !57
  %15 = getelementptr inbounds nuw %struct.RTMPPacket, ptr %14, i32 0, i32 1
  %16 = load i32, ptr %15, align 4, !tbaa !98
  %17 = icmp eq i32 %16, 20
  br i1 %17, label %18, label %48

18:                                               ; preds = %3
  %19 = load i32, ptr %7, align 4, !tbaa !11
  %20 = icmp ne i32 %19, 0
  br i1 %20, label %21, label %48

21:                                               ; preds = %18
  call void @llvm.lifetime.start.p0(i64 24, ptr %9) #12
  call void @llvm.lifetime.start.p0(i64 128, ptr %10) #12
  call void @llvm.lifetime.start.p0(i64 8, ptr %11) #12
  call void @llvm.lifetime.start.p0(i64 4, ptr %12) #12
  %22 = load ptr, ptr %6, align 8, !tbaa !57
  %23 = getelementptr inbounds nuw %struct.RTMPPacket, ptr %22, i32 0, i32 5
  %24 = load ptr, ptr %23, align 8, !tbaa !90
  %25 = load ptr, ptr %6, align 8, !tbaa !57
  %26 = getelementptr inbounds nuw %struct.RTMPPacket, ptr %25, i32 0, i32 6
  %27 = load i32, ptr %26, align 8, !tbaa !97
  call void @bytestream2_init(ptr noundef %9, ptr noundef %24, i32 noundef %27)
  %28 = getelementptr inbounds [128 x i8], ptr %10, i64 0, i64 0
  %29 = call i32 @ff_amf_read_string(ptr noundef %9, ptr noundef %28, i32 noundef 128, ptr noundef %12)
  store i32 %29, ptr %8, align 4, !tbaa !11
  %30 = icmp slt i32 %29, 0
  br i1 %30, label %31, label %32

31:                                               ; preds = %21
  store i32 2, ptr %13, align 4
  br label %45

32:                                               ; preds = %21
  %33 = call i32 @ff_amf_read_number(ptr noundef %9, ptr noundef %11)
  store i32 %33, ptr %8, align 4, !tbaa !11
  %34 = icmp slt i32 %33, 0
  br i1 %34, label %35, label %36

35:                                               ; preds = %32
  store i32 2, ptr %13, align 4
  br label %45

36:                                               ; preds = %32
  %37 = load ptr, ptr %5, align 8, !tbaa !22
  %38 = getelementptr inbounds [128 x i8], ptr %10, i64 0, i64 0
  %39 = load double, ptr %11, align 8, !tbaa !101
  %40 = fptosi double %39 to i32
  %41 = call i32 @add_tracked_method(ptr noundef %37, ptr noundef %38, i32 noundef %40)
  store i32 %41, ptr %8, align 4, !tbaa !11
  %42 = icmp slt i32 %41, 0
  br i1 %42, label %43, label %44

43:                                               ; preds = %36
  store i32 2, ptr %13, align 4
  br label %45

44:                                               ; preds = %36
  store i32 0, ptr %13, align 4
  br label %45

45:                                               ; preds = %43, %35, %31, %44
  call void @llvm.lifetime.end.p0(i64 4, ptr %12) #12
  call void @llvm.lifetime.end.p0(i64 8, ptr %11) #12
  call void @llvm.lifetime.end.p0(i64 128, ptr %10) #12
  call void @llvm.lifetime.end.p0(i64 24, ptr %9) #12
  %46 = load i32, ptr %13, align 4
  switch i32 %46, label %66 [
    i32 0, label %47
    i32 2, label %63
  ]

47:                                               ; preds = %45
  br label %48

48:                                               ; preds = %47, %18, %3
  %49 = load ptr, ptr %5, align 8, !tbaa !22
  %50 = getelementptr inbounds nuw %struct.RTMPContext, ptr %49, i32 0, i32 1
  %51 = load ptr, ptr %50, align 8, !tbaa !65
  %52 = load ptr, ptr %6, align 8, !tbaa !57
  %53 = load ptr, ptr %5, align 8, !tbaa !22
  %54 = getelementptr inbounds nuw %struct.RTMPContext, ptr %53, i32 0, i32 5
  %55 = load i32, ptr %54, align 4, !tbaa !39
  %56 = load ptr, ptr %5, align 8, !tbaa !22
  %57 = getelementptr inbounds nuw %struct.RTMPContext, ptr %56, i32 0, i32 2
  %58 = getelementptr inbounds [2 x ptr], ptr %57, i64 0, i64 1
  %59 = load ptr, ptr %5, align 8, !tbaa !22
  %60 = getelementptr inbounds nuw %struct.RTMPContext, ptr %59, i32 0, i32 3
  %61 = getelementptr inbounds [2 x i32], ptr %60, i64 0, i64 1
  %62 = call i32 @ff_rtmp_packet_write(ptr noundef %51, ptr noundef %52, i32 noundef %55, ptr noundef %58, ptr noundef %61)
  store i32 %62, ptr %8, align 4, !tbaa !11
  br label %63

63:                                               ; preds = %48, %45
  %64 = load ptr, ptr %6, align 8, !tbaa !57
  call void @ff_rtmp_packet_destroy(ptr noundef %64)
  %65 = load i32, ptr %8, align 4, !tbaa !11
  store i32 %65, ptr %4, align 4
  store i32 1, ptr %13, align 4
  br label %66

66:                                               ; preds = %63, %45
  call void @llvm.lifetime.end.p0(i64 4, ptr %8) #12
  %67 = load i32, ptr %4, align 4
  ret i32 %67
}