; Function Attrs: nounwind uwtable
define internal fastcc i32 @rtmp_send_packet(ptr noundef %0, ptr noundef %1, i32 noundef range(i32 0, 2) %2) unnamed_addr #0 {
  %4 = alloca %struct.GetByteContext, align 8
  %5 = alloca [128 x i8], align 16
  %6 = alloca double, align 8
  %7 = alloca i32, align 4
  %8 = getelementptr inbounds nuw i8, ptr %1, i64 4
  %9 = load i32, ptr %8, align 4, !tbaa !71
  %10 = icmp eq i32 %9, 20
  %11 = icmp ne i32 %2, 0
  %or.cond = and i1 %11, %10
  br i1 %or.cond, label %12, label %53

12:                                               ; preds = %3
  call void @llvm.lifetime.start.p0(i64 24, ptr nonnull %4) #11
  call void @llvm.lifetime.start.p0(i64 128, ptr nonnull %5) #11
  call void @llvm.lifetime.start.p0(i64 8, ptr nonnull %6) #11
  call void @llvm.lifetime.start.p0(i64 4, ptr nonnull %7) #11
  %13 = getelementptr inbounds nuw i8, ptr %1, i64 32
  %14 = load i32, ptr %13, align 8, !tbaa !70
  %15 = icmp sgt i32 %14, -1
  br i1 %15, label %bytestream2_init.exit, label %16

16:                                               ; preds = %12
  tail call void (ptr, i32, ptr, ...) @av_log(ptr noundef null, i32 noundef 0, ptr noundef nonnull @.str.84, ptr noundef nonnull @.str.85, ptr noundef nonnull @.str.86, i32 noundef 141) #11
  tail call void @abort() #13
  unreachable

bytestream2_init.exit:                            ; preds = %12
  %17 = getelementptr inbounds nuw i8, ptr %1, i64 24
  %18 = load ptr, ptr %17, align 8, !tbaa !63
  store ptr %18, ptr %4, align 8, !tbaa !72
  %19 = getelementptr inbounds nuw i8, ptr %4, i64 16
  store ptr %18, ptr %19, align 8, !tbaa !74
  %20 = zext nneg i32 %14 to i64
  %21 = getelementptr inbounds nuw i8, ptr %18, i64 %20
  %22 = getelementptr inbounds nuw i8, ptr %4, i64 8
  store ptr %21, ptr %22, align 8, !tbaa !75
  %23 = call i32 @ff_amf_read_string(ptr noundef nonnull %4, ptr noundef nonnull %5, i32 noundef 128, ptr noundef nonnull %7) #11
  %24 = icmp slt i32 %23, 0
  br i1 %24, label %.thread, label %25

25:                                               ; preds = %bytestream2_init.exit
  %26 = call i32 @ff_amf_read_number(ptr noundef nonnull %4, ptr noundef nonnull %6) #11
  %27 = icmp slt i32 %26, 0
  br i1 %27, label %.thread, label %28

28:                                               ; preds = %25
  %29 = load double, ptr %6, align 8, !tbaa !76
  %30 = fptosi double %29 to i32
  %31 = getelementptr inbounds nuw i8, ptr %0, i64 368
  %32 = load i32, ptr %31, align 8, !tbaa !81
  %33 = getelementptr inbounds nuw i8, ptr %0, i64 372
  %34 = load i32, ptr %33, align 4, !tbaa !84
  %.not.i = icmp slt i32 %32, %34
  br i1 %.not.i, label %43, label %35

35:                                               ; preds = %28
  %36 = shl i32 %32, 1
  %37 = add i32 %36, 2
  store i32 %37, ptr %33, align 4, !tbaa !84
  %38 = getelementptr inbounds nuw i8, ptr %0, i64 360
  %39 = sext i32 %37 to i64
  %40 = call i32 @av_reallocp_array(ptr noundef nonnull %38, i64 noundef %39, i64 noundef 16) #11
  %41 = icmp slt i32 %40, 0
  br i1 %41, label %42, label %43

42:                                               ; preds = %35
  store i32 0, ptr %31, align 8, !tbaa !81
  store i32 0, ptr %33, align 4, !tbaa !84
  br label %.thread

43:                                               ; preds = %35, %28
  %44 = call noalias ptr @av_strdup(ptr noundef nonnull %5) #11
  %45 = getelementptr inbounds nuw i8, ptr %0, i64 360
  %46 = load ptr, ptr %45, align 8, !tbaa !82
  %47 = load i32, ptr %31, align 8, !tbaa !81
  %48 = sext i32 %47 to i64
  %49 = getelementptr inbounds %struct.TrackedMethod, ptr %46, i64 %48
  store ptr %44, ptr %49, align 8, !tbaa !113
  %.not20.i = icmp eq ptr %44, null
  br i1 %.not20.i, label %.thread, label %50

.thread:                                          ; preds = %bytestream2_init.exit, %25, %42, %43
  %.014.ph = phi i32 [ %40, %42 ], [ -12, %43 ], [ %26, %25 ], [ %23, %bytestream2_init.exit ]
  call void @llvm.lifetime.end.p0(i64 4, ptr nonnull %7) #11
  call void @llvm.lifetime.end.p0(i64 8, ptr nonnull %6) #11
  call void @llvm.lifetime.end.p0(i64 128, ptr nonnull %5) #11
  call void @llvm.lifetime.end.p0(i64 24, ptr nonnull %4) #11
  br label %61

50:                                               ; preds = %43
  %51 = getelementptr inbounds nuw i8, ptr %49, i64 8
  store i32 %30, ptr %51, align 8, !tbaa !115
  %52 = add nsw i32 %47, 1
  store i32 %52, ptr %31, align 8, !tbaa !81
  call void @llvm.lifetime.end.p0(i64 4, ptr nonnull %7) #11
  call void @llvm.lifetime.end.p0(i64 8, ptr nonnull %6) #11
  call void @llvm.lifetime.end.p0(i64 128, ptr nonnull %5) #11
  call void @llvm.lifetime.end.p0(i64 24, ptr nonnull %4) #11
  br label %53

53:                                               ; preds = %50, %3
  %54 = getelementptr inbounds nuw i8, ptr %0, i64 8
  %55 = load ptr, ptr %54, align 8, !tbaa !46
  %56 = getelementptr inbounds nuw i8, ptr %0, i64 44
  %57 = load i32, ptr %56, align 4, !tbaa !51
  %58 = getelementptr inbounds nuw i8, ptr %0, i64 24
  %59 = getelementptr inbounds nuw i8, ptr %0, i64 36
  %60 = call i32 @ff_rtmp_packet_write(ptr noundef %55, ptr noundef nonnull %1, i32 noundef %57, ptr noundef nonnull %58, ptr noundef nonnull %59) #11
  br label %61

61:                                               ; preds = %.thread, %53
  %.1 = phi i32 [ %60, %53 ], [ %.014.ph, %.thread ]
  call void @ff_rtmp_packet_destroy(ptr noundef nonnull %1) #11
  ret i32 %.1
}